target datalayout = "e-m:e-p270:32:32-p271:32:32-p272:64:64-i64:64-i128:128-f80:128-n8:16:32:64-S128"
target triple = "x86_64-pc-linux-gnu"

%struct.slurm_step_id_msg = type { i64, i32, i32, i32 }
%struct.job_notify_msg = type { ptr, %struct.slurm_step_id_msg }

@.str.2 = private unnamed_addr constant [22 x i8] c"slurm_protocol_pack.c\00", align 1
@__func__._unpack_job_notify = private unnamed_addr constant [19 x i8] c"_unpack_job_notify\00", align 1

; Function Attrs: nounwind uwtable
define internal i32 @_unpack_job_notify(ptr noundef %0, ptr noundef %1, i16 noundef zeroext %2) #0 {
  %4 = alloca i32, align 4
  %5 = alloca ptr, align 8
  %6 = alloca ptr, align 8
  %7 = alloca i16, align 2
  %8 = alloca ptr, align 8
  %9 = alloca i32, align 4
  %10 = alloca i32, align 4
  store ptr %0, ptr %5, align 8
  store ptr %1, ptr %6, align 8
  store i16 %2, ptr %7, align 2
  call void @llvm.lifetime.start.p0(i64 8, ptr %8) #6
  %11 = call ptr @slurm_xcalloc(i64 noundef 1, i64 noundef 32, i1 noundef zeroext true, i1 noundef zeroext false, ptr noundef @.str.2, i32 noundef 11455, ptr noundef @__func__._unpack_job_notify)
  store ptr %11, ptr %8, align 8
  %12 = load i16, ptr %7, align 2
  %13 = zext i16 %12 to i32
  %14 = icmp sge i32 %13, 10240
  br i1 %14, label %15, label %37

15:                                               ; preds = %3
  %16 = load ptr, ptr %8, align 8
  %17 = getelementptr inbounds nuw %struct.job_notify_msg, ptr %16, i32 0, i32 1
  %18 = load ptr, ptr %6, align 8
  %19 = load i16, ptr %7, align 2
  %20 = call i32 @unpack_step_id_members(ptr noundef %17, ptr noundef %18, i16 noundef zeroext %19)
  %21 = icmp ne i32 %20, 0
  br i1 %21, label %22, label %23

22:                                               ; preds = %15
  br label %40

23:                                               ; preds = %15
  br label %24

24:                                               ; preds = %23
  call void @llvm.lifetime.start.p0(i64 4, ptr %9) #6
  %25 = load ptr, ptr %8, align 8
  %26 = getelementptr inbounds nuw %struct.job_notify_msg, ptr %25, i32 0, i32 0
  %27 = load ptr, ptr %6, align 8
  %28 = call i32 @unpackstr_xmalloc_chooser(ptr noundef %26, ptr noundef %9, ptr noundef %27)
  %29 = icmp ne i32 %28, 0
  br i1 %29, label %30, label %31

30:                                               ; preds = %24
  store i32 2, ptr %10, align 4
  br label %32

31:                                               ; preds = %24
  store i32 0, ptr %10, align 4
  br label %32

32:                                               ; preds = %30, %31
  call void @llvm.lifetime.end.p0(i64 4, ptr %9) #6
  %33 = load i32, ptr %10, align 4
  switch i32 %33, label %43 [
    i32 0, label %34
    i32 2, label %40
  ]

34:                                               ; preds = %32
  br label %35

35:                                               ; preds = %34
  br label %36

36:                                               ; preds = %35
  br label %37

37:                                               ; preds = %36, %3
  %38 = load ptr, ptr %8, align 8
  %39 = load ptr, ptr %5, align 8
  store ptr %38, ptr %39, align 8
  store i32 0, ptr %4, align 4
  store i32 1, ptr %10, align 4
  br label %43

40:                                               ; preds = %32, %22
  %41 = load ptr, ptr %8, align 8
  call void @slurm_free_job_notify_msg(ptr noundef %41)
  %42 = load ptr, ptr %5, align 8
  store ptr null, ptr %42, align 8
  store i32 -1, ptr %4, align 4
  store i32 1, ptr %10, align 4
  br label %43

43:                                               ; preds = %40, %37, %32
  call void @llvm.lifetime.end.p0(i64 8, ptr %8) #6
  %44 = load i32, ptr %4, align 4
  ret i32 %44
}